target datalayout = "e-m:e-p270:32:32-p271:32:32-p272:64:64-i64:64-i128:128-f80:128-n8:16:32:64-S128"
target triple = "x86_64-pc-linux-gnu"

%"class.std::_Function_base" = type { %"union.std::_Any_data", ptr }
%"union.std::_Any_data" = type { %"union.std::_Nocopy_types" }
%"union.std::_Nocopy_types" = type { { i64, i64 } }
%"class.rocksdb::Slice" = type { ptr, i64 }
%struct.rocksdb_readoptions_t = type { %"struct.rocksdb::ReadOptions", %"class.rocksdb::Slice", %"class.rocksdb::Slice", %"class.rocksdb::Slice", %"class.rocksdb::Slice" }
%"struct.rocksdb::ReadOptions" = type { ptr, ptr, ptr, %"class.std::chrono::duration", %"class.std::chrono::duration", i32, i32, i64, %"class.std::optional", i8, i8, i8, i8, i8, i64, i64, ptr, ptr, i8, i8, i8, i8, i8, i8, i8, i8, %"class.std::function.132", i8, i8, i8, i8, i64 }
%"class.std::chrono::duration" = type { i64 }
%"class.std::optional" = type { %"struct.std::_Optional_base" }
%"struct.std::_Optional_base" = type { %"struct.std::_Optional_payload" }
%"struct.std::_Optional_payload" = type { %"struct.std::_Optional_payload_base.base", [7 x i8] }
%"struct.std::_Optional_payload_base.base" = type <{ %"union.std::_Optional_payload_base<unsigned long>::_Storage", i8 }>
%"union.std::_Optional_payload_base<unsigned long>::_Storage" = type { i64 }
%"class.std::function.132" = type { %"class.std::_Function_base", ptr }
%struct.rocksdb_iterator_t = type { ptr }
%struct.rocksdb_transaction_t = type { ptr }

; Function Attrs: mustprogress uwtable
define ptr @rocksdb_transaction_create_iterator(ptr noundef %0, ptr noundef %1) #0 {
  %3 = alloca ptr, align 8
  %4 = alloca ptr, align 8
  %5 = alloca ptr, align 8
  store ptr %0, ptr %3, align 8, !tbaa !1256
  store ptr %1, ptr %4, align 8, !tbaa !263
  call void @llvm.lifetime.start.p0(i64 8, ptr %5) #24
  %6 = call noalias noundef nonnull ptr @_Znwm(i64 noundef 8) #25
  store ptr %6, ptr %5, align 8, !tbaa !327
  %7 = load ptr, ptr %3, align 8, !tbaa !1256
  %8 = getelementptr inbounds nuw %struct.rocksdb_transaction_t, ptr %7, i32 0, i32 0
  %9 = load ptr, ptr %8, align 8, !tbaa !1258
  %10 = load ptr, ptr %4, align 8, !tbaa !263
  %11 = getelementptr inbounds nuw %struct.rocksdb_readoptions_t, ptr %10, i32 0, i32 0
  %12 = load ptr, ptr %9, align 8, !tbaa !129
  %13 = getelementptr inbounds ptr, ptr %12, i64 30
  %14 = load ptr, ptr %13, align 8
  %15 = call noundef ptr %14(ptr noundef nonnull align 8 dereferenceable(64) %9, ptr noundef nonnull align 8 dereferenceable(168) %11)
  %16 = load ptr, ptr %5, align 8, !tbaa !327
  %17 = getelementptr inbounds nuw %struct.rocksdb_iterator_t, ptr %16, i32 0, i32 0
  store ptr %15, ptr %17, align 8, !tbaa !329
  %18 = load ptr, ptr %5, align 8, !tbaa !327
  call void @llvm.lifetime.end.p0(i64 8, ptr %5) #24
  ret ptr %18
}