; Function Attrs: mustprogress uwtable
define noundef nonnull ptr @rocksdb_transaction_create_iterator(ptr noundef readonly captures(none) %0, ptr noundef %1) local_unnamed_addr #0 {
  %3 = tail call noalias noundef nonnull dereferenceable(8) ptr @_Znwm(i64 noundef 8) #46
  %4 = load ptr, ptr %0, align 8, !tbaa !1216
  %5 = load ptr, ptr %4, align 8, !tbaa !23
  %6 = getelementptr inbounds nuw i8, ptr %5, i64 240
  %7 = load ptr, ptr %6, align 8
  %8 = tail call noundef ptr %7(ptr noundef nonnull align 8 dereferenceable(64) %4, ptr noundef nonnull align 8 dereferenceable(168) %1)
  store ptr %8, ptr %3, align 8, !tbaa !312
  ret ptr %3
}